target datalayout = "e-m:e-p270:32:32-p271:32:32-p272:64:64-i64:64-i128:128-f80:128-n8:16:32:64-S128"
target triple = "x86_64-pc-linux-gnu"

%struct.expert_field = type { i32, i32 }

@ei_gsm_sms_short_data = internal global %struct.expert_field zeroinitializer, align 4
@hf_gsm_sms_tp_mti_down = internal global i32 0, align 4
@hf_gsm_sms_tp_udhi = internal global i32 0, align 4
@hf_gsm_sms_tp_fail_cause = internal global i32 0, align 4
@hf_gsm_sms_tp_parameter_indicator = internal global i32 0, align 4
@hf_gsm_sms_tp_user_data_length = internal global i32 0, align 4
@ett_pi = internal global i32 0, align 4
@.str.620 = private unnamed_addr constant [8 x i8] c"(%d) %s\00", align 1
@.str.621 = private unnamed_addr constant [30 x i8] c"depends on Data-Coding-Scheme\00", align 1
@.str.622 = private unnamed_addr constant [13 x i8] c"no User-Data\00", align 1
@dis_field_pi.pi_flags = internal constant [6 x ptr] [ptr @hf_gsm_sms_tp_extension, ptr @hf_gsm_sms_tp_reserved, ptr @hf_gsm_sms_tp_udl_present, ptr @hf_gsm_sms_tp_dcs_present, ptr @hf_gsm_sms_tp_pid_present, ptr null], align 16

; Function Attrs: null_pointer_is_valid sspstrong uwtable
define internal void @dis_field_pi(ptr noundef %0, ptr noundef %1, i32 noundef %2) #0 {
  %4 = alloca ptr, align 8
  %5 = alloca ptr, align 8
  %6 = alloca i32, align 4
  store ptr %0, ptr %4, align 8
  store ptr %1, ptr %5, align 8
  store i32 %2, ptr %6, align 4
  %7 = load ptr, ptr %5, align 8
  %8 = load ptr, ptr %4, align 8
  %9 = load i32, ptr %6, align 4
  %10 = load i32, ptr @hf_gsm_sms_tp_parameter_indicator, align 4
  %11 = load i32, ptr @ett_pi, align 4
  %12 = call ptr @proto_tree_add_bitmask(ptr noundef %7, ptr noundef %8, i32 noundef %9, i32 noundef %10, i32 noundef %11, ptr noundef @dis_field_pi.pi_flags, i32 noundef 0)
  ret void
}

; Function Attrs: null_pointer_is_valid sspstrong uwtable
define internal void @dis_field_fcs(ptr noundef %0, ptr noundef %1, i32 noundef %2, i8 noundef zeroext %3) #0 {
  %5 = alloca ptr, align 8
  %6 = alloca ptr, align 8
  %7 = alloca i32, align 4
  %8 = alloca i8, align 1
  store ptr %0, ptr %5, align 8
  store ptr %1, ptr %6, align 8
  store i32 %2, ptr %7, align 4
  store i8 %3, ptr %8, align 1
  %9 = load ptr, ptr %6, align 8
  %10 = load i32, ptr @hf_gsm_sms_tp_fail_cause, align 4
  %11 = load ptr, ptr %5, align 8
  %12 = load i32, ptr %7, align 4
  %13 = call ptr @proto_tree_add_item(ptr noundef %9, i32 noundef %10, ptr noundef %11, i32 noundef %12, i32 noundef 1, i32 noundef 0)
  ret void
}

; Function Attrs: null_pointer_is_valid sspstrong uwtable
define internal void @dis_msg_submit_report(ptr noundef %0, ptr noundef %1, ptr noundef %2, i32 noundef %3, ptr noundef %4) #0 {
  %6 = alloca ptr, align 8
  %7 = alloca ptr, align 8
  %8 = alloca ptr, align 8
  %9 = alloca i32, align 4
  %10 = alloca ptr, align 8
  %11 = alloca i32, align 4
  %12 = alloca i32, align 4
  %13 = alloca i8, align 1
  %14 = alloca i8, align 1
  %15 = alloca i8, align 1
  %16 = alloca i32, align 4
  %17 = alloca i8, align 1
  %18 = alloca i8, align 1
  %19 = alloca i32, align 4
  store ptr %0, ptr %6, align 8
  store ptr %1, ptr %7, align 8
  store ptr %2, ptr %8, align 8
  store i32 %3, ptr %9, align 4
  store ptr %4, ptr %10, align 8
  call void @llvm.lifetime.start.p0(i64 4, ptr %11) #13
  call void @llvm.lifetime.start.p0(i64 4, ptr %12) #13
  call void @llvm.lifetime.start.p0(i64 1, ptr %13) #13
  call void @llvm.lifetime.start.p0(i64 1, ptr %14) #13
  call void @llvm.lifetime.start.p0(i64 1, ptr %15) #13
  call void @llvm.lifetime.start.p0(i64 4, ptr %16) #13
  store i32 0, ptr %16, align 4
  call void @llvm.lifetime.start.p0(i64 1, ptr %17) #13
  store i8 0, ptr %17, align 1
  call void @llvm.lifetime.start.p0(i64 1, ptr %18) #13
  store i8 0, ptr %15, align 1
  %20 = load i32, ptr %9, align 4
  store i32 %20, ptr %11, align 4
  %21 = load ptr, ptr %6, align 8
  %22 = load i32, ptr %9, align 4
  %23 = call i32 @tvb_reported_length_remaining(ptr noundef %21, i32 noundef %22)
  store i32 %23, ptr %12, align 4
  %24 = load ptr, ptr %6, align 8
  %25 = load i32, ptr %9, align 4
  %26 = call zeroext i8 @tvb_get_uint8(ptr noundef %24, i32 noundef %25)
  store i8 %26, ptr %13, align 1
  %27 = load i8, ptr %13, align 1
  %28 = zext i8 %27 to i32
  %29 = and i32 %28, 64
  %30 = icmp ne i32 %29, 0
  %31 = zext i1 %30 to i8
  store i8 %31, ptr %18, align 1
  %32 = load ptr, ptr %8, align 8
  %33 = load i32, ptr @hf_gsm_sms_tp_udhi, align 4
  %34 = load ptr, ptr %6, align 8
  %35 = load i32, ptr %9, align 4
  %36 = call ptr @proto_tree_add_item(ptr noundef %32, i32 noundef %33, ptr noundef %34, i32 noundef %35, i32 noundef 1, i32 noundef 0)
  %37 = load ptr, ptr %8, align 8
  %38 = load i32, ptr @hf_gsm_sms_tp_mti_down, align 4
  %39 = load ptr, ptr %6, align 8
  %40 = load i32, ptr %9, align 4
  %41 = call ptr @proto_tree_add_item(ptr noundef %37, i32 noundef %38, ptr noundef %39, i32 noundef %40, i32 noundef 1, i32 noundef 0)
  %42 = load i32, ptr %9, align 4
  %43 = add i32 %42, 1
  store i32 %43, ptr %9, align 4
  %44 = load ptr, ptr %6, align 8
  %45 = load i32, ptr %9, align 4
  %46 = call zeroext i8 @tvb_get_uint8(ptr noundef %44, i32 noundef %45)
  store i8 %46, ptr %13, align 1
  %47 = load i8, ptr %13, align 1
  %48 = zext i8 %47 to i32
  %49 = and i32 %48, 128
  %50 = icmp ne i32 %49, 0
  br i1 %50, label %51, label %58

51:                                               ; preds = %5
  %52 = load ptr, ptr %6, align 8
  %53 = load ptr, ptr %8, align 8
  %54 = load i32, ptr %9, align 4
  %55 = load i8, ptr %13, align 1
  call void @dis_field_fcs(ptr noundef %52, ptr noundef %53, i32 noundef %54, i8 noundef zeroext %55)
  %56 = load i32, ptr %9, align 4
  %57 = add i32 %56, 1
  store i32 %57, ptr %9, align 4
  br label %58

58:                                               ; preds = %51, %5
  %59 = load ptr, ptr %6, align 8
  %60 = load i32, ptr %9, align 4
  %61 = call zeroext i8 @tvb_get_uint8(ptr noundef %59, i32 noundef %60)
  store i8 %61, ptr %14, align 1
  %62 = load ptr, ptr %6, align 8
  %63 = load ptr, ptr %8, align 8
  %64 = load i32, ptr %9, align 4
  call void @dis_field_pi(ptr noundef %62, ptr noundef %63, i32 noundef %64)
  %65 = load i32, ptr %9, align 4
  %66 = add i32 %65, 1
  store i32 %66, ptr %9, align 4
  %67 = load ptr, ptr %6, align 8
  %68 = load ptr, ptr %7, align 8
  %69 = load ptr, ptr %8, align 8
  call void @dis_field_scts(ptr noundef %67, ptr noundef %68, ptr noundef %69, ptr noundef %9)
  %70 = load i8, ptr %14, align 1
  %71 = zext i8 %70 to i32
  %72 = and i32 %71, 1
  %73 = icmp ne i32 %72, 0
  br i1 %73, label %74, label %96

74:                                               ; preds = %58
  %75 = load i32, ptr %12, align 4
  %76 = load i32, ptr %9, align 4
  %77 = load i32, ptr %11, align 4
  %78 = sub i32 %76, %77
  %79 = icmp ule i32 %75, %78
  br i1 %79, label %80, label %86

80:                                               ; preds = %74
  %81 = load ptr, ptr %8, align 8
  %82 = load ptr, ptr %7, align 8
  %83 = load ptr, ptr %6, align 8
  %84 = load i32, ptr %9, align 4
  %85 = call ptr @proto_tree_add_expert(ptr noundef %81, ptr noundef %82, ptr noundef @ei_gsm_sms_short_data, ptr noundef %83, i32 noundef %84, i32 noundef -1)
  store i32 1, ptr %19, align 4
  br label %182

86:                                               ; preds = %74
  %87 = load ptr, ptr %6, align 8
  %88 = load i32, ptr %9, align 4
  %89 = call zeroext i8 @tvb_get_uint8(ptr noundef %87, i32 noundef %88)
  store i8 %89, ptr %13, align 1
  %90 = load ptr, ptr %6, align 8
  %91 = load ptr, ptr %8, align 8
  %92 = load i32, ptr %9, align 4
  %93 = load i8, ptr %13, align 1
  call void @dis_field_pid(ptr noundef %90, ptr noundef %91, i32 noundef %92, i8 noundef zeroext %93)
  %94 = load i32, ptr %9, align 4
  %95 = add i32 %94, 1
  store i32 %95, ptr %9, align 4
  br label %96

96:                                               ; preds = %86, %58
  %97 = load i8, ptr %14, align 1
  %98 = zext i8 %97 to i32
  %99 = and i32 %98, 2
  %100 = icmp ne i32 %99, 0
  br i1 %100, label %101, label %123

101:                                              ; preds = %96
  %102 = load i32, ptr %12, align 4
  %103 = load i32, ptr %9, align 4
  %104 = load i32, ptr %11, align 4
  %105 = sub i32 %103, %104
  %106 = icmp ule i32 %102, %105
  br i1 %106, label %107, label %113

107:                                              ; preds = %101
  %108 = load ptr, ptr %8, align 8
  %109 = load ptr, ptr %7, align 8
  %110 = load ptr, ptr %6, align 8
  %111 = load i32, ptr %9, align 4
  %112 = call ptr @proto_tree_add_expert(ptr noundef %108, ptr noundef %109, ptr noundef @ei_gsm_sms_short_data, ptr noundef %110, i32 noundef %111, i32 noundef -1)
  store i32 1, ptr %19, align 4
  br label %182

113:                                              ; preds = %101
  %114 = load ptr, ptr %6, align 8
  %115 = load i32, ptr %9, align 4
  %116 = call zeroext i8 @tvb_get_uint8(ptr noundef %114, i32 noundef %115)
  store i8 %116, ptr %13, align 1
  %117 = load ptr, ptr %6, align 8
  %118 = load ptr, ptr %8, align 8
  %119 = load i32, ptr %9, align 4
  %120 = load i8, ptr %13, align 1
  call void @dis_field_dcs(ptr noundef %117, ptr noundef %118, i32 noundef %119, i8 noundef zeroext %120, ptr noundef %16, ptr noundef %17)
  %121 = load i32, ptr %9, align 4
  %122 = add i32 %121, 1
  store i32 %122, ptr %9, align 4
  br label %123

123:                                              ; preds = %113, %96
  %124 = load i8, ptr %14, align 1
  %125 = zext i8 %124 to i32
  %126 = and i32 %125, 4
  %127 = icmp ne i32 %126, 0
  br i1 %127, label %128, label %160

128:                                              ; preds = %123
  %129 = load i32, ptr %12, align 4
  %130 = load i32, ptr %9, align 4
  %131 = load i32, ptr %11, align 4
  %132 = sub i32 %130, %131
  %133 = icmp ule i32 %129, %132
  br i1 %133, label %134, label %140

134:                                              ; preds = %128
  %135 = load ptr, ptr %8, align 8
  %136 = load ptr, ptr %7, align 8
  %137 = load ptr, ptr %6, align 8
  %138 = load i32, ptr %9, align 4
  %139 = call ptr @proto_tree_add_expert(ptr noundef %135, ptr noundef %136, ptr noundef @ei_gsm_sms_short_data, ptr noundef %137, i32 noundef %138, i32 noundef -1)
  store i32 1, ptr %19, align 4
  br label %182

140:                                              ; preds = %128
  %141 = load ptr, ptr %6, align 8
  %142 = load i32, ptr %9, align 4
  %143 = call zeroext i8 @tvb_get_uint8(ptr noundef %141, i32 noundef %142)
  store i8 %143, ptr %13, align 1
  %144 = load i8, ptr %13, align 1
  store i8 %144, ptr %15, align 1
  %145 = load ptr, ptr %8, align 8
  %146 = load i32, ptr @hf_gsm_sms_tp_user_data_length, align 4
  %147 = load ptr, ptr %6, align 8
  %148 = load i32, ptr %9, align 4
  %149 = load i8, ptr %13, align 1
  %150 = zext i8 %149 to i32
  %151 = load i8, ptr %13, align 1
  %152 = zext i8 %151 to i32
  %153 = load i8, ptr %13, align 1
  %154 = zext i8 %153 to i32
  %155 = icmp ne i32 %154, 0
  %156 = select i1 %155, ptr @.str.621, ptr @.str.622
  %157 = call ptr (ptr, i32, ptr, i32, i32, i32, ptr, ...) @proto_tree_add_uint_format_value(ptr noundef %145, i32 noundef %146, ptr noundef %147, i32 noundef %148, i32 noundef 1, i32 noundef %150, ptr noundef @.str.620, i32 noundef %152, ptr noundef %156)
  %158 = load i32, ptr %9, align 4
  %159 = add i32 %158, 1
  store i32 %159, ptr %9, align 4
  br label %160

160:                                              ; preds = %140, %123
  %161 = load i8, ptr %15, align 1
  %162 = zext i8 %161 to i32
  %163 = icmp sgt i32 %162, 0
  br i1 %163, label %164, label %181

164:                                              ; preds = %160
  %165 = load ptr, ptr %6, align 8
  %166 = load ptr, ptr %7, align 8
  %167 = load ptr, ptr %8, align 8
  %168 = load i32, ptr %9, align 4
  %169 = load i32, ptr %12, align 4
  %170 = load i32, ptr %9, align 4
  %171 = load i32, ptr %11, align 4
  %172 = sub i32 %170, %171
  %173 = sub i32 %169, %172
  %174 = load i8, ptr %18, align 1, !range !9, !noundef !10
  %175 = trunc i8 %174 to i1
  %176 = load i8, ptr %15, align 1
  %177 = load i32, ptr %16, align 4
  %178 = load i8, ptr %17, align 1, !range !9, !noundef !10
  %179 = trunc i8 %178 to i1
  %180 = load ptr, ptr %10, align 8
  call void @dis_field_ud(ptr noundef %165, ptr noundef %166, ptr noundef %167, i32 noundef %168, i32 noundef %173, i1 noundef zeroext %175, i8 noundef zeroext %176, i32 noundef %177, i1 noundef zeroext %179, ptr noundef %180)
  br label %181

181:                                              ; preds = %164, %160
  store i32 0, ptr %19, align 4
  br label %182

182:                                              ; preds = %181, %134, %107, %80
  call void @llvm.lifetime.end.p0(i64 1, ptr %18) #13
  call void @llvm.lifetime.end.p0(i64 1, ptr %17) #13
  call void @llvm.lifetime.end.p0(i64 4, ptr %16) #13
  call void @llvm.lifetime.end.p0(i64 1, ptr %15) #13
  call void @llvm.lifetime.end.p0(i64 1, ptr %14) #13
  call void @llvm.lifetime.end.p0(i64 1, ptr %13) #13
  call void @llvm.lifetime.end.p0(i64 4, ptr %12) #13
  call void @llvm.lifetime.end.p0(i64 4, ptr %11) #13
  %183 = load i32, ptr %19, align 4
  switch i32 %183, label %185 [
    i32 0, label %184
    i32 1, label %184
  ]

184:                                              ; preds = %182, %182
  ret void

185:                                              ; preds = %182
  unreachable
}