; Function Attrs: null_pointer_is_valid sspstrong uwtable
define internal void @dis_msg_submit_report(ptr noundef %0, ptr noundef %1, ptr noundef %2, i32 noundef %3, ptr noundef captures(address_is_null) %4) #0 {
  %6 = alloca i32, align 4
  %7 = alloca i32, align 4
  %8 = alloca i8, align 1
  call void @llvm.lifetime.start.p0(i64 4, ptr nonnull %7) #10
  store i32 0, ptr %7, align 4
  call void @llvm.lifetime.start.p0(i64 1, ptr nonnull %8) #10
  store i8 0, ptr %8, align 1
  %9 = tail call i32 @tvb_reported_length_remaining(ptr noundef %0, i32 noundef %3)
  %10 = tail call zeroext i8 @tvb_get_uint8(ptr noundef %0, i32 noundef %3)
  %11 = and i8 %10, 64
  %12 = icmp ne i8 %11, 0
  %13 = load i32, ptr @hf_gsm_sms_tp_udhi, align 4
  %14 = tail call ptr @proto_tree_add_item(ptr noundef %2, i32 noundef %13, ptr noundef %0, i32 noundef %3, i32 noundef 1, i32 noundef 0)
  %15 = load i32, ptr @hf_gsm_sms_tp_mti_down, align 4
  %16 = tail call ptr @proto_tree_add_item(ptr noundef %2, i32 noundef %15, ptr noundef %0, i32 noundef %3, i32 noundef 1, i32 noundef 0)
  %17 = add i32 %3, 1
  %18 = tail call zeroext i8 @tvb_get_uint8(ptr noundef %0, i32 noundef %17)
  %.not = icmp sgt i8 %18, -1
  br i1 %.not, label %23, label %19

19:                                               ; preds = %5
  %20 = load i32, ptr @hf_gsm_sms_tp_fail_cause, align 4
  %21 = tail call ptr @proto_tree_add_item(ptr noundef %2, i32 noundef %20, ptr noundef %0, i32 noundef %17, i32 noundef 1, i32 noundef 0)
  %22 = add i32 %3, 2
  br label %23

23:                                               ; preds = %19, %5
  %24 = phi i32 [ %22, %19 ], [ %17, %5 ]
  %25 = tail call zeroext i8 @tvb_get_uint8(ptr noundef %0, i32 noundef %24)
  %26 = load i32, ptr @hf_gsm_sms_tp_parameter_indicator, align 4
  %27 = load i32, ptr @ett_pi, align 4
  %28 = tail call ptr @proto_tree_add_bitmask(ptr noundef %2, ptr noundef %0, i32 noundef %24, i32 noundef %26, i32 noundef %27, ptr noundef nonnull @dis_field_pi.pi_flags, i32 noundef 0)
  %29 = add i32 %24, 1
  store i32 %29, ptr %6, align 4
  call fastcc void @dis_field_scts(ptr noundef %0, ptr noundef %1, ptr noundef %2, ptr noundef nonnull %6)
  %30 = zext i8 %25 to i32
  %31 = and i32 %30, 1
  %.not59 = icmp eq i32 %31, 0
  br i1 %.not59, label %40, label %32

32:                                               ; preds = %23
  %33 = load i32, ptr %6, align 4
  %34 = sub i32 %33, %3
  %.not60 = icmp ugt i32 %9, %34
  br i1 %.not60, label %37, label %35

35:                                               ; preds = %32
  %36 = tail call ptr @proto_tree_add_expert(ptr noundef %2, ptr noundef %1, ptr noundef nonnull @ei_gsm_sms_short_data, ptr noundef %0, i32 noundef %33, i32 noundef -1)
  br label %.thread

37:                                               ; preds = %32
  %38 = tail call zeroext i8 @tvb_get_uint8(ptr noundef %0, i32 noundef %33)
  tail call fastcc void @dis_field_pid(ptr noundef %0, ptr noundef %2, i32 noundef %33, i8 noundef zeroext %38)
  %39 = add i32 %33, 1
  store i32 %39, ptr %6, align 4
  br label %40

40:                                               ; preds = %37, %23
  %41 = and i32 %30, 2
  %.not61 = icmp eq i32 %41, 0
  br i1 %.not61, label %50, label %42

42:                                               ; preds = %40
  %43 = load i32, ptr %6, align 4
  %44 = sub i32 %43, %3
  %.not62 = icmp ugt i32 %9, %44
  br i1 %.not62, label %47, label %45

45:                                               ; preds = %42
  %46 = tail call ptr @proto_tree_add_expert(ptr noundef %2, ptr noundef %1, ptr noundef nonnull @ei_gsm_sms_short_data, ptr noundef %0, i32 noundef %43, i32 noundef -1)
  br label %.thread

47:                                               ; preds = %42
  %48 = tail call zeroext i8 @tvb_get_uint8(ptr noundef %0, i32 noundef %43)
  call fastcc void @dis_field_dcs(ptr noundef %0, ptr noundef %2, i32 noundef %43, i8 noundef zeroext %48, ptr noundef nonnull %7, ptr noundef nonnull %8)
  %49 = add i32 %43, 1
  store i32 %49, ptr %6, align 4
  br label %50

50:                                               ; preds = %47, %40
  %51 = and i32 %30, 4
  %.not63 = icmp eq i32 %51, 0
  br i1 %.not63, label %.thread, label %52

52:                                               ; preds = %50
  %53 = load i32, ptr %6, align 4
  %54 = sub i32 %53, %3
  %.not64 = icmp ugt i32 %9, %54
  br i1 %.not64, label %57, label %55

55:                                               ; preds = %52
  %56 = tail call ptr @proto_tree_add_expert(ptr noundef %2, ptr noundef %1, ptr noundef nonnull @ei_gsm_sms_short_data, ptr noundef %0, i32 noundef %53, i32 noundef -1)
  br label %.thread

57:                                               ; preds = %52
  %58 = tail call zeroext i8 @tvb_get_uint8(ptr noundef %0, i32 noundef %53)
  %59 = load i32, ptr @hf_gsm_sms_tp_user_data_length, align 4
  %60 = zext i8 %58 to i32
  %.not65 = icmp eq i8 %58, 0
  %61 = select i1 %.not65, ptr @.str.622, ptr @.str.621
  %62 = tail call ptr (ptr, i32, ptr, i32, i32, i32, ptr, ...) @proto_tree_add_uint_format_value(ptr noundef %2, i32 noundef %59, ptr noundef %0, i32 noundef %53, i32 noundef 1, i32 noundef %60, ptr noundef nonnull @.str.620, i32 noundef %60, ptr noundef nonnull %61)
  br i1 %.not65, label %.thread, label %63

63:                                               ; preds = %57
  %64 = add i32 %53, 1
  %.neg = add i32 %9, %3
  %65 = sub i32 %.neg, %64
  %66 = load i32, ptr %7, align 4
  %67 = load i8, ptr %8, align 1, !range !9, !noundef !10
  %68 = trunc nuw i8 %67 to i1
  tail call fastcc void @dis_field_ud(ptr noundef %0, ptr noundef %1, ptr noundef %2, i32 noundef %64, i32 noundef %65, i1 noundef zeroext %12, i8 noundef zeroext %58, i32 noundef %66, i1 noundef zeroext %68, ptr noundef %4)
  br label %.thread

.thread:                                          ; preds = %50, %57, %63, %55, %45, %35
  call void @llvm.lifetime.end.p0(i64 1, ptr nonnull %8) #10
  call void @llvm.lifetime.end.p0(i64 4, ptr nonnull %7) #10
  ret void
}